target datalayout = "e-m:e-p270:32:32-p271:32:32-p272:64:64-i64:64-i128:128-f80:128-n8:16:32:64-S128"
target triple = "x86_64-pc-linux-gnu"

; Function Attrs: nounwind uwtable
define dso_local void @clusterCommandSlots(ptr noundef %0) #0 {
  %2 = alloca ptr, align 8
  %3 = alloca ptr, align 8
  %4 = alloca i32, align 4
  %5 = alloca i32, align 4
  %6 = alloca ptr, align 8
  %7 = alloca i32, align 4
  %8 = alloca i32, align 4
  store ptr %0, ptr %2, align 8, !tbaa !53
  call void @llvm.lifetime.start.p0(i64 8, ptr %3) #14
  store ptr null, ptr %3, align 8, !tbaa !116
  call void @llvm.lifetime.start.p0(i64 4, ptr %4) #14
  store i32 0, ptr %4, align 4, !tbaa !10
  call void @llvm.lifetime.start.p0(i64 4, ptr %5) #14
  store i32 -1, ptr %5, align 4, !tbaa !10
  call void @llvm.lifetime.start.p0(i64 8, ptr %6) #14
  %9 = load ptr, ptr %2, align 8, !tbaa !53
  %10 = call ptr @addReplyDeferredLen(ptr noundef %9)
  store ptr %10, ptr %6, align 8, !tbaa !118
  call void @llvm.lifetime.start.p0(i64 4, ptr %7) #14
  store i32 0, ptr %7, align 4, !tbaa !10
  br label %11

11:                                               ; preds = %50, %1
  %12 = load i32, ptr %7, align 4, !tbaa !10
  %13 = icmp sle i32 %12, 16384
  br i1 %13, label %15, label %14

14:                                               ; preds = %11
  store i32 2, ptr %8, align 4
  br label %53

15:                                               ; preds = %11
  %16 = load ptr, ptr %3, align 8, !tbaa !116
  %17 = icmp eq ptr %16, null
  br i1 %17, label %18, label %26

18:                                               ; preds = %15
  %19 = load i32, ptr %7, align 4, !tbaa !10
  %20 = icmp eq i32 %19, 16384
  br i1 %20, label %21, label %22

21:                                               ; preds = %18
  store i32 2, ptr %8, align 4
  br label %53

22:                                               ; preds = %18
  %23 = load i32, ptr %7, align 4, !tbaa !10
  %24 = call ptr @getNodeBySlot(i32 noundef %23)
  store ptr %24, ptr %3, align 8, !tbaa !116
  %25 = load i32, ptr %7, align 4, !tbaa !10
  store i32 %25, ptr %5, align 4, !tbaa !10
  br label %50

26:                                               ; preds = %15
  %27 = load i32, ptr %7, align 4, !tbaa !10
  %28 = icmp eq i32 %27, 16384
  br i1 %28, label %34, label %29

29:                                               ; preds = %26
  %30 = load ptr, ptr %3, align 8, !tbaa !116
  %31 = load i32, ptr %7, align 4, !tbaa !10
  %32 = call ptr @getNodeBySlot(i32 noundef %31)
  %33 = icmp ne ptr %30, %32
  br i1 %33, label %34, label %49

34:                                               ; preds = %29, %26
  %35 = load ptr, ptr %2, align 8, !tbaa !53
  %36 = load ptr, ptr %3, align 8, !tbaa !116
  %37 = load i32, ptr %5, align 4, !tbaa !10
  %38 = load i32, ptr %7, align 4, !tbaa !10
  %39 = sub nsw i32 %38, 1
  call void @addNodeReplyForClusterSlot(ptr noundef %35, ptr noundef %36, i32 noundef %37, i32 noundef %39)
  %40 = load i32, ptr %4, align 4, !tbaa !10
  %41 = add nsw i32 %40, 1
  store i32 %41, ptr %4, align 4, !tbaa !10
  %42 = load i32, ptr %7, align 4, !tbaa !10
  %43 = icmp eq i32 %42, 16384
  br i1 %43, label %44, label %45

44:                                               ; preds = %34
  store i32 2, ptr %8, align 4
  br label %53

45:                                               ; preds = %34
  %46 = load i32, ptr %7, align 4, !tbaa !10
  %47 = call ptr @getNodeBySlot(i32 noundef %46)
  store ptr %47, ptr %3, align 8, !tbaa !116
  %48 = load i32, ptr %7, align 4, !tbaa !10
  store i32 %48, ptr %5, align 4, !tbaa !10
  br label %49

49:                                               ; preds = %45, %29
  br label %50

50:                                               ; preds = %49, %22
  %51 = load i32, ptr %7, align 4, !tbaa !10
  %52 = add nsw i32 %51, 1
  store i32 %52, ptr %7, align 4, !tbaa !10
  br label %11, !llvm.loop !130

53:                                               ; preds = %44, %21, %14
  call void @llvm.lifetime.end.p0(i64 4, ptr %7) #14
  br label %54

54:                                               ; preds = %53
  %55 = load ptr, ptr %2, align 8, !tbaa !53
  %56 = load ptr, ptr %6, align 8, !tbaa !118
  %57 = load i32, ptr %4, align 4, !tbaa !10
  %58 = sext i32 %57 to i64
  call void @setDeferredArrayLen(ptr noundef %55, ptr noundef %56, i64 noundef %58)
  call void @llvm.lifetime.end.p0(i64 8, ptr %6) #14
  call void @llvm.lifetime.end.p0(i64 4, ptr %5) #14
  call void @llvm.lifetime.end.p0(i64 4, ptr %4) #14
  call void @llvm.lifetime.end.p0(i64 8, ptr %3) #14
  ret void
}