; Function Attrs: nounwind uwtable
define dso_local void @clusterCommandSlots(ptr noundef %0) local_unnamed_addr #0 {
  %2 = tail call ptr @addReplyDeferredLen(ptr noundef %0) #16
  br label %3

3:                                                ; preds = %1, %15
  %.023 = phi i32 [ 0, %1 ], [ %.2, %15 ]
  %.021 = phi i32 [ -1, %1 ], [ %.122, %15 ]
  %.020 = phi ptr [ null, %1 ], [ %.1, %15 ]
  %.0 = phi i32 [ 0, %1 ], [ %16, %15 ]
  %4 = icmp eq ptr %.020, null
  %5 = icmp eq i32 %.0, 16384
  br i1 %4, label %6, label %7

6:                                                ; preds = %3
  br i1 %5, label %.loopexit, label %.sink.split

7:                                                ; preds = %3
  br i1 %5, label %.thread, label %9

.thread:                                          ; preds = %7
  tail call void @addNodeReplyForClusterSlot(ptr noundef %0, ptr noundef nonnull %.020, i32 noundef %.021, i32 noundef 16383)
  %8 = add nsw i32 %.023, 1
  br label %.loopexit

9:                                                ; preds = %7
  %10 = tail call ptr @getNodeBySlot(i32 noundef %.0) #16
  %.not = icmp eq ptr %.020, %10
  br i1 %.not, label %15, label %11

11:                                               ; preds = %9
  %12 = add nsw i32 %.0, -1
  tail call void @addNodeReplyForClusterSlot(ptr noundef %0, ptr noundef nonnull %.020, i32 noundef %.021, i32 noundef %12)
  %13 = add nsw i32 %.023, 1
  br label %.sink.split

.sink.split:                                      ; preds = %6, %11
  %.2.ph = phi i32 [ %13, %11 ], [ %.023, %6 ]
  %14 = tail call ptr @getNodeBySlot(i32 noundef %.0) #16
  br label %15

15:                                               ; preds = %.sink.split, %9
  %.2 = phi i32 [ %.023, %9 ], [ %.2.ph, %.sink.split ]
  %.122 = phi i32 [ %.021, %9 ], [ %.0, %.sink.split ]
  %.1 = phi ptr [ %.020, %9 ], [ %14, %.sink.split ]
  %16 = add nuw nsw i32 %.0, 1
  br label %3, !llvm.loop !115

.loopexit:                                        ; preds = %6, %.thread
  %.124 = phi i32 [ %8, %.thread ], [ %.023, %6 ]
  %17 = sext i32 %.124 to i64
  tail call void @setDeferredArrayLen(ptr noundef %0, ptr noundef %2, i64 noundef %17) #16
  ret void
}